; Function Attrs: mustprogress uwtable
define hidden void @_ZN4cvc58internal6theory8booleans17CircuitPropagator10initializeEv(ptr noundef nonnull align 8 dereferenceable(528) %0) local_unnamed_addr #3 align 2 {
  %2 = getelementptr inbounds nuw i8, ptr %0, i64 498
  %3 = load i8, ptr %2, align 2, !tbaa !100, !range !122, !noundef !123
  %4 = trunc nuw i8 %3 to i1
  br i1 %4, label %5, label %7

5:                                                ; preds = %1
  %6 = getelementptr inbounds nuw i8, ptr %0, i64 16
  tail call void @_ZN4cvc57context7Context3popEv(ptr noundef nonnull align 8 dereferenceable(48) %6)
  br label %7

7:                                                ; preds = %5, %1
  %8 = getelementptr inbounds nuw i8, ptr %0, i64 16
  tail call void @_ZN4cvc57context7Context4pushEv(ptr noundef nonnull align 8 dereferenceable(48) %8)
  store i8 1, ptr %2, align 2, !tbaa !100
  ret void
}